target datalayout = "e-m:e-p270:32:32-p271:32:32-p272:64:64-i64:64-i128:128-f80:128-n8:16:32:64-S128"
target triple = "x86_64-pc-linux-gnu"

@H5E_OHDR_g = external global i64, align 8
@.str.4 = private unnamed_addr constant [102 x i8] c"generated/home/dtcxzyw/WorkSpace/Projects/compilers/llvm-opt-benchmark/bench/hdf5/hdf5/src/H5Odtype.c\00", align 1
@H5E_BADTYPE_g = external global i64, align 8
@__func__.H5O__dtype_can_share = private unnamed_addr constant [21 x i8] c"H5O__dtype_can_share\00", align 1
@.str.176 = private unnamed_addr constant [36 x i8] c"can't tell if datatype is immutable\00", align 1
@.str.177 = private unnamed_addr constant [33 x i8] c"can't tell if datatype is shared\00", align 1

; Function Attrs: nounwind uwtable
define internal i32 @H5O__dtype_can_share(ptr noundef %0) #0 {
  %2 = alloca ptr, align 8
  %3 = alloca ptr, align 8
  %4 = alloca i32, align 4
  %5 = alloca i32, align 4
  %6 = alloca i8, align 1
  store ptr %0, ptr %2, align 8
  %7 = load ptr, ptr %2, align 8
  store ptr %7, ptr %3, align 8
  store i32 1, ptr %5, align 4
  store i8 0, ptr %6, align 1
  %8 = load ptr, ptr %3, align 8
  %9 = call i32 @H5T_is_immutable(ptr noundef %8)
  store i32 %9, ptr %4, align 4
  %10 = icmp sgt i32 %9, 0
  br i1 %10, label %11, label %14

11:                                               ; preds = %1
  br label %12

12:                                               ; preds = %11
  store i32 0, ptr %5, align 4
  br label %60

13:                                               ; No predecessors!
  br label %33

14:                                               ; preds = %1
  %15 = load i32, ptr %4, align 4
  %16 = icmp slt i32 %15, 0
  br i1 %16, label %17, label %32

17:                                               ; preds = %14
  br label %18

18:                                               ; preds = %17
  br label %19

19:                                               ; preds = %18
  br label %20

20:                                               ; preds = %19
  %21 = load i64, ptr @H5E_OHDR_g, align 8
  %22 = load i64, ptr @H5E_BADTYPE_g, align 8
  %23 = call i32 (ptr, ptr, i32, i64, i64, ptr, ...) @H5E_printf_stack(ptr noundef @.str.4, ptr noundef @__func__.H5O__dtype_can_share, i32 noundef 1785, i64 noundef %21, i64 noundef %22, ptr noundef @.str.176)
  br label %24

24:                                               ; preds = %20
  store i8 1, ptr %6, align 1
  %25 = load i8, ptr %6, align 1
  %26 = trunc i8 %25 to i1
  %27 = zext i1 %26 to i8
  store i8 %27, ptr %6, align 1
  br label %28

28:                                               ; preds = %24
  br label %29

29:                                               ; preds = %28
  store i32 -1, ptr %5, align 4
  br label %60

30:                                               ; No predecessors!
  br label %31

31:                                               ; preds = %30
  br label %32

32:                                               ; preds = %31, %14
  br label %33

33:                                               ; preds = %32, %13
  %34 = load ptr, ptr %3, align 8
  %35 = call i32 @H5T_is_named(ptr noundef %34)
  store i32 %35, ptr %4, align 4
  %36 = icmp sgt i32 %35, 0
  br i1 %36, label %37, label %40

37:                                               ; preds = %33
  br label %38

38:                                               ; preds = %37
  store i32 0, ptr %5, align 4
  br label %60

39:                                               ; No predecessors!
  br label %59

40:                                               ; preds = %33
  %41 = load i32, ptr %4, align 4
  %42 = icmp slt i32 %41, 0
  br i1 %42, label %43, label %58

43:                                               ; preds = %40
  br label %44

44:                                               ; preds = %43
  br label %45

45:                                               ; preds = %44
  br label %46

46:                                               ; preds = %45
  %47 = load i64, ptr @H5E_OHDR_g, align 8
  %48 = load i64, ptr @H5E_BADTYPE_g, align 8
  %49 = call i32 (ptr, ptr, i32, i64, i64, ptr, ...) @H5E_printf_stack(ptr noundef @.str.4, ptr noundef @__func__.H5O__dtype_can_share, i32 noundef 1791, i64 noundef %47, i64 noundef %48, ptr noundef @.str.177)
  br label %50

50:                                               ; preds = %46
  store i8 1, ptr %6, align 1
  %51 = load i8, ptr %6, align 1
  %52 = trunc i8 %51 to i1
  %53 = zext i1 %52 to i8
  store i8 %53, ptr %6, align 1
  br label %54

54:                                               ; preds = %50
  br label %55

55:                                               ; preds = %54
  store i32 -1, ptr %5, align 4
  br label %60

56:                                               ; No predecessors!
  br label %57

57:                                               ; preds = %56
  br label %58

58:                                               ; preds = %57, %40
  br label %59

59:                                               ; preds = %58, %39
  br label %60

60:                                               ; preds = %59, %55, %38, %29, %12
  %61 = load i32, ptr %5, align 4
  ret i32 %61
}