; Function Attrs: nounwind uwtable
define internal range(i32 -1, 2) i32 @H5O__dtype_can_share(ptr noundef %0) #0 {
  %2 = tail call i32 @H5T_is_immutable(ptr noundef %0) #15
  %3 = icmp sgt i32 %2, 0
  br i1 %3, label %19, label %4

4:                                                ; preds = %1
  %5 = icmp slt i32 %2, 0
  br i1 %5, label %6, label %10

6:                                                ; preds = %4
  %7 = load i64, ptr @H5E_OHDR_g, align 8
  %8 = load i64, ptr @H5E_BADTYPE_g, align 8
  %9 = tail call i32 (ptr, ptr, i32, i64, i64, ptr, ...) @H5E_printf_stack(ptr noundef nonnull @.str.4, ptr noundef nonnull @__func__.H5O__dtype_can_share, i32 noundef 1785, i64 noundef %7, i64 noundef %8, ptr noundef nonnull @.str.176) #15
  br label %19

10:                                               ; preds = %4
  %11 = tail call i32 @H5T_is_named(ptr noundef %0) #15
  %12 = icmp sgt i32 %11, 0
  br i1 %12, label %19, label %13

13:                                               ; preds = %10
  %14 = icmp slt i32 %11, 0
  br i1 %14, label %15, label %19

15:                                               ; preds = %13
  %16 = load i64, ptr @H5E_OHDR_g, align 8
  %17 = load i64, ptr @H5E_BADTYPE_g, align 8
  %18 = tail call i32 (ptr, ptr, i32, i64, i64, ptr, ...) @H5E_printf_stack(ptr noundef nonnull @.str.4, ptr noundef nonnull @__func__.H5O__dtype_can_share, i32 noundef 1791, i64 noundef %16, i64 noundef %17, ptr noundef nonnull @.str.177) #15
  br label %19

19:                                               ; preds = %10, %1, %13, %15, %6
  %.0 = phi i32 [ -1, %6 ], [ -1, %15 ], [ 1, %13 ], [ 0, %1 ], [ 0, %10 ]
  ret i32 %.0
}